target datalayout = "e-m:e-p270:32:32-p271:32:32-p272:64:64-i64:64-i128:128-f80:128-n8:16:32:64-S128"
target triple = "x86_64-pc-linux-gnu"

%struct.HeapTupleData = type { i32, %struct.ItemPointerData, i32, ptr }
%struct.ItemPointerData = type { %struct.BlockIdData, i16 }
%struct.BlockIdData = type { i16, i16 }
%struct.PgStat_ArchiverStats = type { i64, [41 x i8], i64, i64, [41 x i8], i64, i64 }

@.str.27 = private unnamed_addr constant [12 x i8] c"stats_reset\00", align 1
@.str.39 = private unnamed_addr constant [15 x i8] c"archived_count\00", align 1
@.str.40 = private unnamed_addr constant [18 x i8] c"last_archived_wal\00", align 1
@.str.41 = private unnamed_addr constant [19 x i8] c"last_archived_time\00", align 1
@.str.42 = private unnamed_addr constant [13 x i8] c"failed_count\00", align 1
@.str.43 = private unnamed_addr constant [16 x i8] c"last_failed_wal\00", align 1
@.str.44 = private unnamed_addr constant [17 x i8] c"last_failed_time\00", align 1

; Function Attrs: inlinehint nounwind uwtable
define internal i64 @HeapTupleGetDatum(ptr noundef %0) #2 {
  %2 = alloca ptr, align 8
  store ptr %0, ptr %2, align 8
  %3 = load ptr, ptr %2, align 8
  %4 = getelementptr inbounds nuw %struct.HeapTupleData, ptr %3, i32 0, i32 3
  %5 = load ptr, ptr %4, align 8
  %6 = call i64 @HeapTupleHeaderGetDatum(ptr noundef %5)
  ret i64 %6
}

; Function Attrs: inlinehint nounwind uwtable
define internal i64 @TimestampTzGetDatum(i64 noundef %0) #2 {
  %2 = alloca i64, align 8
  store i64 %0, ptr %2, align 8
  %3 = load i64, ptr %2, align 8
  %4 = call i64 @Int64GetDatum(i64 noundef %3)
  ret i64 %4
}

; Function Attrs: inlinehint nounwind uwtable
define internal i64 @PointerGetDatum(ptr noundef %0) #2 {
  %2 = alloca ptr, align 8
  store ptr %0, ptr %2, align 8
  %3 = load ptr, ptr %2, align 8
  %4 = ptrtoint ptr %3 to i64
  ret i64 %4
}

; Function Attrs: inlinehint nounwind uwtable
define internal i64 @Int64GetDatum(i64 noundef %0) #2 {
  %2 = alloca i64, align 8
  store i64 %0, ptr %2, align 8
  %3 = load i64, ptr %2, align 8
  ret i64 %3
}

; Function Attrs: nounwind uwtable
define dso_local i64 @pg_stat_get_archiver(ptr noundef %0) #0 {
  %2 = alloca ptr, align 8
  %3 = alloca ptr, align 8
  %4 = alloca [7 x i64], align 16
  %5 = alloca [7 x i8], align 1
  %6 = alloca ptr, align 8
  store ptr %0, ptr %2, align 8
  call void @llvm.lifetime.start.p0(i64 8, ptr %3) #10
  call void @llvm.lifetime.start.p0(i64 56, ptr %4) #10
  call void @llvm.memset.p0.i64(ptr align 16 %4, i8 0, i64 56, i1 false)
  call void @llvm.lifetime.start.p0(i64 7, ptr %5) #10
  call void @llvm.memset.p0.i64(ptr align 1 %5, i8 0, i64 7, i1 false)
  call void @llvm.lifetime.start.p0(i64 8, ptr %6) #10
  %7 = call ptr @CreateTemplateTupleDesc(i32 noundef 7)
  store ptr %7, ptr %3, align 8
  %8 = load ptr, ptr %3, align 8
  call void @TupleDescInitEntry(ptr noundef %8, i16 noundef signext 1, ptr noundef @.str.39, i32 noundef 20, i32 noundef -1, i32 noundef 0)
  %9 = load ptr, ptr %3, align 8
  call void @TupleDescInitEntry(ptr noundef %9, i16 noundef signext 2, ptr noundef @.str.40, i32 noundef 25, i32 noundef -1, i32 noundef 0)
  %10 = load ptr, ptr %3, align 8
  call void @TupleDescInitEntry(ptr noundef %10, i16 noundef signext 3, ptr noundef @.str.41, i32 noundef 1184, i32 noundef -1, i32 noundef 0)
  %11 = load ptr, ptr %3, align 8
  call void @TupleDescInitEntry(ptr noundef %11, i16 noundef signext 4, ptr noundef @.str.42, i32 noundef 20, i32 noundef -1, i32 noundef 0)
  %12 = load ptr, ptr %3, align 8
  call void @TupleDescInitEntry(ptr noundef %12, i16 noundef signext 5, ptr noundef @.str.43, i32 noundef 25, i32 noundef -1, i32 noundef 0)
  %13 = load ptr, ptr %3, align 8
  call void @TupleDescInitEntry(ptr noundef %13, i16 noundef signext 6, ptr noundef @.str.44, i32 noundef 1184, i32 noundef -1, i32 noundef 0)
  %14 = load ptr, ptr %3, align 8
  call void @TupleDescInitEntry(ptr noundef %14, i16 noundef signext 7, ptr noundef @.str.27, i32 noundef 1184, i32 noundef -1, i32 noundef 0)
  %15 = load ptr, ptr %3, align 8
  %16 = call ptr @BlessTupleDesc(ptr noundef %15)
  %17 = call ptr @pgstat_fetch_stat_archiver()
  store ptr %17, ptr %6, align 8
  %18 = load ptr, ptr %6, align 8
  %19 = getelementptr inbounds nuw %struct.PgStat_ArchiverStats, ptr %18, i32 0, i32 0
  %20 = load i64, ptr %19, align 8
  %21 = call i64 @Int64GetDatum(i64 noundef %20)
  %22 = getelementptr inbounds [7 x i64], ptr %4, i64 0, i64 0
  store i64 %21, ptr %22, align 16
  %23 = load ptr, ptr %6, align 8
  %24 = getelementptr inbounds nuw %struct.PgStat_ArchiverStats, ptr %23, i32 0, i32 1
  %25 = getelementptr inbounds [41 x i8], ptr %24, i64 0, i64 0
  %26 = load i8, ptr %25, align 8
  %27 = sext i8 %26 to i32
  %28 = icmp eq i32 %27, 0
  br i1 %28, label %29, label %31

29:                                               ; preds = %1
  %30 = getelementptr inbounds [7 x i8], ptr %5, i64 0, i64 1
  store i8 1, ptr %30, align 1
  br label %38

31:                                               ; preds = %1
  %32 = load ptr, ptr %6, align 8
  %33 = getelementptr inbounds nuw %struct.PgStat_ArchiverStats, ptr %32, i32 0, i32 1
  %34 = getelementptr inbounds [41 x i8], ptr %33, i64 0, i64 0
  %35 = call ptr @cstring_to_text(ptr noundef %34)
  %36 = call i64 @PointerGetDatum(ptr noundef %35)
  %37 = getelementptr inbounds [7 x i64], ptr %4, i64 0, i64 1
  store i64 %36, ptr %37, align 8
  br label %38

38:                                               ; preds = %31, %29
  %39 = load ptr, ptr %6, align 8
  %40 = getelementptr inbounds nuw %struct.PgStat_ArchiverStats, ptr %39, i32 0, i32 2
  %41 = load i64, ptr %40, align 8
  %42 = icmp eq i64 %41, 0
  br i1 %42, label %43, label %45

43:                                               ; preds = %38
  %44 = getelementptr inbounds [7 x i8], ptr %5, i64 0, i64 2
  store i8 1, ptr %44, align 1
  br label %51

45:                                               ; preds = %38
  %46 = load ptr, ptr %6, align 8
  %47 = getelementptr inbounds nuw %struct.PgStat_ArchiverStats, ptr %46, i32 0, i32 2
  %48 = load i64, ptr %47, align 8
  %49 = call i64 @TimestampTzGetDatum(i64 noundef %48)
  %50 = getelementptr inbounds [7 x i64], ptr %4, i64 0, i64 2
  store i64 %49, ptr %50, align 16
  br label %51

51:                                               ; preds = %45, %43
  %52 = load ptr, ptr %6, align 8
  %53 = getelementptr inbounds nuw %struct.PgStat_ArchiverStats, ptr %52, i32 0, i32 3
  %54 = load i64, ptr %53, align 8
  %55 = call i64 @Int64GetDatum(i64 noundef %54)
  %56 = getelementptr inbounds [7 x i64], ptr %4, i64 0, i64 3
  store i64 %55, ptr %56, align 8
  %57 = load ptr, ptr %6, align 8
  %58 = getelementptr inbounds nuw %struct.PgStat_ArchiverStats, ptr %57, i32 0, i32 4
  %59 = getelementptr inbounds [41 x i8], ptr %58, i64 0, i64 0
  %60 = load i8, ptr %59, align 8
  %61 = sext i8 %60 to i32
  %62 = icmp eq i32 %61, 0
  br i1 %62, label %63, label %65

63:                                               ; preds = %51
  %64 = getelementptr inbounds [7 x i8], ptr %5, i64 0, i64 4
  store i8 1, ptr %64, align 1
  br label %72

65:                                               ; preds = %51
  %66 = load ptr, ptr %6, align 8
  %67 = getelementptr inbounds nuw %struct.PgStat_ArchiverStats, ptr %66, i32 0, i32 4
  %68 = getelementptr inbounds [41 x i8], ptr %67, i64 0, i64 0
  %69 = call ptr @cstring_to_text(ptr noundef %68)
  %70 = call i64 @PointerGetDatum(ptr noundef %69)
  %71 = getelementptr inbounds [7 x i64], ptr %4, i64 0, i64 4
  store i64 %70, ptr %71, align 16
  br label %72

72:                                               ; preds = %65, %63
  %73 = load ptr, ptr %6, align 8
  %74 = getelementptr inbounds nuw %struct.PgStat_ArchiverStats, ptr %73, i32 0, i32 5
  %75 = load i64, ptr %74, align 8
  %76 = icmp eq i64 %75, 0
  br i1 %76, label %77, label %79

77:                                               ; preds = %72
  %78 = getelementptr inbounds [7 x i8], ptr %5, i64 0, i64 5
  store i8 1, ptr %78, align 1
  br label %85

79:                                               ; preds = %72
  %80 = load ptr, ptr %6, align 8
  %81 = getelementptr inbounds nuw %struct.PgStat_ArchiverStats, ptr %80, i32 0, i32 5
  %82 = load i64, ptr %81, align 8
  %83 = call i64 @TimestampTzGetDatum(i64 noundef %82)
  %84 = getelementptr inbounds [7 x i64], ptr %4, i64 0, i64 5
  store i64 %83, ptr %84, align 8
  br label %85

85:                                               ; preds = %79, %77
  %86 = load ptr, ptr %6, align 8
  %87 = getelementptr inbounds nuw %struct.PgStat_ArchiverStats, ptr %86, i32 0, i32 6
  %88 = load i64, ptr %87, align 8
  %89 = icmp eq i64 %88, 0
  br i1 %89, label %90, label %92

90:                                               ; preds = %85
  %91 = getelementptr inbounds [7 x i8], ptr %5, i64 0, i64 6
  store i8 1, ptr %91, align 1
  br label %98

92:                                               ; preds = %85
  %93 = load ptr, ptr %6, align 8
  %94 = getelementptr inbounds nuw %struct.PgStat_ArchiverStats, ptr %93, i32 0, i32 6
  %95 = load i64, ptr %94, align 8
  %96 = call i64 @TimestampTzGetDatum(i64 noundef %95)
  %97 = getelementptr inbounds [7 x i64], ptr %4, i64 0, i64 6
  store i64 %96, ptr %97, align 16
  br label %98

98:                                               ; preds = %92, %90
  %99 = load ptr, ptr %3, align 8
  %100 = getelementptr inbounds [7 x i64], ptr %4, i64 0, i64 0
  %101 = getelementptr inbounds [7 x i8], ptr %5, i64 0, i64 0
  %102 = call ptr @heap_form_tuple(ptr noundef %99, ptr noundef %100, ptr noundef %101)
  %103 = call i64 @HeapTupleGetDatum(ptr noundef %102)
  call void @llvm.lifetime.end.p0(i64 8, ptr %6) #10
  call void @llvm.lifetime.end.p0(i64 7, ptr %5) #10
  call void @llvm.lifetime.end.p0(i64 56, ptr %4) #10
  call void @llvm.lifetime.end.p0(i64 8, ptr %3) #10
  ret i64 %103
}