; Function Attrs: nounwind uwtable
define dso_local i64 @pg_stat_get_archiver(ptr noundef readnone captures(none) %0) local_unnamed_addr #0 {
  %2 = alloca [7 x i64], align 16
  %3 = alloca [7 x i8], align 1
  call void @llvm.lifetime.start.p0(i64 56, ptr nonnull %2) #9
  call void @llvm.memset.p0.i64(ptr noundef nonnull align 16 dereferenceable(56) %2, i8 0, i64 56, i1 false)
  call void @llvm.lifetime.start.p0(i64 7, ptr nonnull %3) #9
  call void @llvm.memset.p0.i64(ptr noundef nonnull align 1 dereferenceable(7) %3, i8 0, i64 7, i1 false)
  %4 = tail call ptr @CreateTemplateTupleDesc(i32 noundef 7) #9
  tail call void @TupleDescInitEntry(ptr noundef %4, i16 noundef signext 1, ptr noundef nonnull @.str.39, i32 noundef 20, i32 noundef -1, i32 noundef 0) #9
  tail call void @TupleDescInitEntry(ptr noundef %4, i16 noundef signext 2, ptr noundef nonnull @.str.40, i32 noundef 25, i32 noundef -1, i32 noundef 0) #9
  tail call void @TupleDescInitEntry(ptr noundef %4, i16 noundef signext 3, ptr noundef nonnull @.str.41, i32 noundef 1184, i32 noundef -1, i32 noundef 0) #9
  tail call void @TupleDescInitEntry(ptr noundef %4, i16 noundef signext 4, ptr noundef nonnull @.str.42, i32 noundef 20, i32 noundef -1, i32 noundef 0) #9
  tail call void @TupleDescInitEntry(ptr noundef %4, i16 noundef signext 5, ptr noundef nonnull @.str.43, i32 noundef 25, i32 noundef -1, i32 noundef 0) #9
  tail call void @TupleDescInitEntry(ptr noundef %4, i16 noundef signext 6, ptr noundef nonnull @.str.44, i32 noundef 1184, i32 noundef -1, i32 noundef 0) #9
  tail call void @TupleDescInitEntry(ptr noundef %4, i16 noundef signext 7, ptr noundef nonnull @.str.27, i32 noundef 1184, i32 noundef -1, i32 noundef 0) #9
  %5 = tail call ptr @BlessTupleDesc(ptr noundef %4) #9
  %6 = tail call ptr @pgstat_fetch_stat_archiver() #9
  %7 = load i64, ptr %6, align 8
  store i64 %7, ptr %2, align 16
  %8 = getelementptr inbounds nuw i8, ptr %6, i64 8
  %9 = load i8, ptr %8, align 8
  %10 = icmp eq i8 %9, 0
  br i1 %10, label %11, label %13

11:                                               ; preds = %1
  %12 = getelementptr inbounds nuw i8, ptr %3, i64 1
  store i8 1, ptr %12, align 1
  br label %17

13:                                               ; preds = %1
  %14 = tail call ptr @cstring_to_text(ptr noundef nonnull %8) #9
  %15 = ptrtoint ptr %14 to i64
  %16 = getelementptr inbounds nuw i8, ptr %2, i64 8
  store i64 %15, ptr %16, align 8
  br label %17

17:                                               ; preds = %13, %11
  %18 = getelementptr inbounds nuw i8, ptr %6, i64 56
  %19 = load i64, ptr %18, align 8
  %20 = icmp eq i64 %19, 0
  br i1 %20, label %21, label %23

21:                                               ; preds = %17
  %22 = getelementptr inbounds nuw i8, ptr %3, i64 2
  store i8 1, ptr %22, align 1
  br label %25

23:                                               ; preds = %17
  %24 = getelementptr inbounds nuw i8, ptr %2, i64 16
  store i64 %19, ptr %24, align 16
  br label %25

25:                                               ; preds = %23, %21
  %26 = getelementptr inbounds nuw i8, ptr %6, i64 64
  %27 = load i64, ptr %26, align 8
  %28 = getelementptr inbounds nuw i8, ptr %2, i64 24
  store i64 %27, ptr %28, align 8
  %29 = getelementptr inbounds nuw i8, ptr %6, i64 72
  %30 = load i8, ptr %29, align 8
  %31 = icmp eq i8 %30, 0
  br i1 %31, label %32, label %34

32:                                               ; preds = %25
  %33 = getelementptr inbounds nuw i8, ptr %3, i64 4
  store i8 1, ptr %33, align 1
  br label %38

34:                                               ; preds = %25
  %35 = tail call ptr @cstring_to_text(ptr noundef nonnull %29) #9
  %36 = ptrtoint ptr %35 to i64
  %37 = getelementptr inbounds nuw i8, ptr %2, i64 32
  store i64 %36, ptr %37, align 16
  br label %38

38:                                               ; preds = %34, %32
  %39 = getelementptr inbounds nuw i8, ptr %6, i64 120
  %40 = load i64, ptr %39, align 8
  %41 = icmp eq i64 %40, 0
  br i1 %41, label %42, label %44

42:                                               ; preds = %38
  %43 = getelementptr inbounds nuw i8, ptr %3, i64 5
  store i8 1, ptr %43, align 1
  br label %46

44:                                               ; preds = %38
  %45 = getelementptr inbounds nuw i8, ptr %2, i64 40
  store i64 %40, ptr %45, align 8
  br label %46

46:                                               ; preds = %44, %42
  %47 = getelementptr inbounds nuw i8, ptr %6, i64 128
  %48 = load i64, ptr %47, align 8
  %49 = icmp eq i64 %48, 0
  br i1 %49, label %50, label %52

50:                                               ; preds = %46
  %51 = getelementptr inbounds nuw i8, ptr %3, i64 6
  store i8 1, ptr %51, align 1
  br label %54

52:                                               ; preds = %46
  %53 = getelementptr inbounds nuw i8, ptr %2, i64 48
  store i64 %48, ptr %53, align 16
  br label %54

54:                                               ; preds = %52, %50
  %55 = call ptr @heap_form_tuple(ptr noundef %4, ptr noundef nonnull %2, ptr noundef nonnull %3) #9
  %56 = getelementptr i8, ptr %55, i64 16
  %.val = load ptr, ptr %56, align 8
  %57 = call i64 @HeapTupleHeaderGetDatum(ptr noundef %.val) #9
  call void @llvm.lifetime.end.p0(i64 7, ptr nonnull %3) #9
  call void @llvm.lifetime.end.p0(i64 56, ptr nonnull %2) #9
  ret i64 %57
}